EXPORTS 
	??_R0?AVArchive@@@8 	 DATA
	??_R0?AVFile@@@8 	 DATA
	??_R0?AVbad_alloc@std@@@8 	 DATA
	??_R0?AVexception@std@@@8 	 DATA
	??_R0?AW4RAR_EXIT@@@8 	 DATA
	?ErrHandler@@3VErrorHandler@@A 	 DATA
	?ThreadPriority@ThreadPool@@2HA 	 DATA
	?_OptionsStorage@?1??__local_stdio_printf_options@@9@4_KA 	 DATA
	?_SSE_Version@@3W4SSE_VERSION@@A 	 DATA
	?gdbcs@@3VSupportDBCS@@A 	 DATA
	??$uiMsg@H@@YAXW4UIMESSAGE_CODE@@H@Z
	??$uiMsg@I@@YAXW4UIMESSAGE_CODE@@I@Z
	??$uiMsg@PEA_W@@YAXW4UIMESSAGE_CODE@@PEA_W@Z
	??$uiMsg@PEA_WPEA_W@@YAXW4UIMESSAGE_CODE@@PEA_W1@Z
	??$uiMsg@PEA_WPEA_WPEA_W@@YAXW4UIMESSAGE_CODE@@PEA_W11@Z
	??$uiMsg@PEA_WPEB_W@@YAXW4UIMESSAGE_CODE@@PEA_WPEB_W@Z
	??$uiMsg@PEA_WPEB_WPEA_W@@YAXW4UIMESSAGE_CODE@@PEA_WPEB_W1@Z
	??$uiMsg@PEA_WPEB_WPEB_W@@YAXW4UIMESSAGE_CODE@@PEA_WPEB_W2@Z
	??$uiMsg@PEB_W@@YAXW4UIMESSAGE_CODE@@PEB_W@Z
	??$uiMsg@PEB_WH@@YAXW4UIMESSAGE_CODE@@PEB_WH@Z
	??$uiMsg@PEB_WPEB_W@@YAXW4UIMESSAGE_CODE@@PEB_W1@Z
	??0?$Array@D@@QEAA@XZ
	??0?$Array@D@@QEAA@_K@Z
	??0?$Array@E@@QEAA@XZ
	??0?$Array@E@@QEAA@_K@Z
	??0?$Array@H@@QEAA@XZ
	??0?$Array@PEAUUnpackFilter30@@@@QEAA@XZ
	??0?$Array@URecVolItem@@@@QEAA@XZ
	??0?$Array@UUnpackFilter@@@@QEAA@XZ
	??0?$Array@_J@@QEAA@XZ
	??0?$Array@_W@@QEAA@XZ
	??0?$Array@_W@@QEAA@_K@Z
	??0Archive@@QEAA@PEAVRAROptions@@@Z
	??0BitInput@@QEAA@_N@Z
	??0CmdExtract@@QEAA@PEAVCommandData@@@Z
	??0CommandData@@QEAA@XZ
	??0ComprDataIO@@QEAA@XZ
	??0CryptData@@QEAA@XZ
	??0DataHash@@QEAA@XZ
	??0EncodeFileName@@QEAA@XZ
	??0ErrorHandler@@QEAA@XZ
	??0File@@QEAA@XZ
	??0FindFile@@QEAA@XZ
	??0FragmentedWindow@@QEAA@XZ
	??0KDF3CacheItem@CryptData@@QEAA@XZ
	??0KDF5CacheItem@CryptData@@QEAA@XZ
	??0ModelPPM@@QEAA@XZ
	??0QuickOpen@@QEAA@XZ
	??0RAROptions@@QEAA@XZ
	??0RSCoder16@@QEAA@XZ
	??0RarVM@@QEAA@XZ
	??0RawRead@@QEAA@PEAVFile@@@Z
	??0RawRead@@QEAA@XZ
	??0RecVolumes3@@QEAA@PEAVRAROptions@@_N@Z
	??0RecVolumes5@@QEAA@PEAVRAROptions@@_N@Z
	??0Rijndael@@QEAA@XZ
	??0ScanTree@@QEAA@PEAVStringList@@W4RECURSE_MODE@@_NW4SCAN_DIRS@@@Z
	??0SecPassword@@QEAA@XZ
	??0StringList@@QEAA@XZ
	??0SubAllocator@@QEAA@XZ
	??0SupportDBCS@@QEAA@XZ
	??0ThreadPool@@QEAA@I@Z
	??0Unpack@@QEAA@PEAVComprDataIO@@@Z
	??0UnpackThreadData@@QEAA@XZ
	??0bad_alloc@std@@QEAA@AEBV01@@Z
	??0bad_alloc@std@@QEAA@XZ
	??0blake2s_state@@QEAA@AEAU0@@Z
	??0blake2s_state@@QEAA@XZ
	??0blake2sp_state@@QEAA@AEAU0@@Z
	??0exception@std@@QEAA@AEBV01@@Z
	??1?$Array@D@@QEAA@XZ
	??1?$Array@E@@QEAA@XZ
	??1?$Array@H@@QEAA@XZ
	??1?$Array@PEAUUnpackFilter30@@@@QEAA@XZ
	??1?$Array@URecVolItem@@@@QEAA@XZ
	??1?$Array@UUnpackFilter@@@@QEAA@XZ
	??1?$Array@_J@@QEAA@XZ
	??1?$Array@_W@@QEAA@XZ
	??1Archive@@UEAA@XZ
	??1BitInput@@QEAA@XZ
	??1CmdExtract@@QEAA@XZ
	??1CommandData@@QEAA@XZ
	??1ComprDataIO@@QEAA@XZ
	??1CryptData@@QEAA@XZ
	??1DataHash@@QEAA@XZ
	??1File@@UEAA@XZ
	??1FileHeader@@QEAA@XZ
	??1FindFile@@QEAA@XZ
	??1FragmentedWindow@@QEAA@XZ
	??1KDF3CacheItem@CryptData@@QEAA@XZ
	??1KDF5CacheItem@CryptData@@QEAA@XZ
	??1ModelPPM@@QEAA@XZ
	??1QuickOpen@@QEAA@XZ
	??1RAROptions@@QEAA@XZ
	??1RSCoder16@@QEAA@XZ
	??1RarVM@@QEAA@XZ
	??1RawRead@@QEAA@XZ
	??1RecVolumes3@@QEAA@XZ
	??1RecVolumes5@@QEAA@XZ
	??1ScanTree@@QEAA@XZ
	??1SecPassword@@QEAA@XZ
	??1StringList@@QEAA@XZ
	??1ThreadPool@@QEAA@XZ
	??1Unpack@@QEAA@XZ
	??1UnpackThreadData@@QEAA@XZ
	??1bad_alloc@std@@UEAA@XZ
	??1exception@std@@UEAA@XZ
	??4?$Array@E@@QEAAXAEAV0@@Z
	??4File@@QEAAXAEAV0@@Z
	??4FileHeader@@QEAAAEAU0@AEAU0@@Z
	??8HashValue@@QEAA_NAEBU0@@Z
	??8SecPassword@@QEAA_NAEAV0@@Z
	??AFragmentedWindow@@QEAAAEAE_K@Z
	??_H@YAXPEAX_K1P6APEAX0@Z@Z
	??__G@YAXPEAX0_K1P6APEAX00@Z@Z
	?Add@?$Array@D@@QEAAX_K@Z
	?Add@?$Array@E@@QEAAX_K@Z
	?Add@?$Array@H@@QEAAX_K@Z
	?Add@?$Array@I@@QEAAX_K@Z
	?Add@?$Array@PEAUUnpackFilter30@@@@QEAAX_K@Z
	?Add@?$Array@URecVolItem@@@@QEAAX_K@Z
	?Add@?$Array@UUnpackFilter@@@@QEAAX_K@Z
	?Add@?$Array@_W@@QEAAX_K@Z
	?AddArcName@CommandData@@QEAAXPEB_W@Z
	?AddEndSlash@@YAXPEA_W_K@Z
	?AddFilter@Unpack@@AEAA_NAEAUUnpackFilter@@@Z
	?AddString@StringList@@QEAAXPEB_W@Z
	?AddStringA@StringList@@QEAAXPEBD@Z
	?AddTask@ThreadPool@@QEAAXP6AXPEAX@Z0@Z
	?AddVMCode@Unpack@@AEAA_NIPEAEI@Z
	?Adjust@RarTime@@QEAAX_J@Z
	?Alloc@?$Array@D@@QEAAX_K@Z
	?Alloc@?$Array@E@@QEAAX_K@Z
	?Alloc@?$Array@URecVolItem@@@@QEAAX_K@Z
	?Alloc@?$Array@UUnpackFilter@@@@QEAAX_K@Z
	?Alloc@?$Array@_W@@QEAAX_K@Z
	?AllocUnits@SubAllocator@@QEAAPEAXH@Z
	?AllocUnitsRare@SubAllocator@@AEAAPEAXH@Z
	?ApplyFilter@Unpack@@AEAAPEAEPEAEIPEAUUnpackFilter@@@Z
	?ArcBrokenMsg@ErrorHandler@@QEAAXPEB_W@Z
	?ArcCharToWide@@YAXPEBDPEA_W_KW4ACTW_ENCODING@@@Z
	?AskRepeatRead@ErrorHandler@@QEAAXPEB_WAEA_N11@Z
	?AskRepeatWrite@ErrorHandler@@QEAA_NPEB_W_N@Z
	?BadSwitch@CommandData@@AEAAXPEB_W@Z
	?BinToHex@@YAXPEBE_KPEADPEA_W1@Z
	?Blake2Thread@@YAXPEAX@Z
	?BrokenHeaderMsg@Archive@@AEAAXXZ
	?CRC32@@YAIIPEBX_K@Z
	?CalcFileSum@@YAXPEAVFile@@PEAIPEAEI_JI@Z
	?CharToWide@@YA_NPEBDPEA_W_K@Z
	?CheckArc@Archive@@QEAAX_N@Z
	?CheckArgs@CommandData@@SA_NPEAVStringList@@_NPEB_W1H@Z
	?CheckOpen@Archive@@QEAAXPEB_W@Z
	?CheckUnpVer@CmdExtract@@AEAA_NAEAVArchive@@PEB_W@Z
	?CheckWinSize@CommandData@@QEAA_NXZ
	?Checksum14@@YAGGPEBX_K@Z
	?ChecksumFailedMsg@ErrorHandler@@QEAAXPEB_W0@Z
	?Clean@ErrorHandler@@QEAAXXZ
	?Clean@SecPassword@@QEAAXXZ
	?Clean@SubAllocator@@QEAAXXZ
	?CleanUp@ModelPPM@@QEAAXXZ
	?Close@File@@UEAA_NXZ
	?Close@QuickOpen@@AEAAXXZ
	?CloseError@ErrorHandler@@QEAAXPEB_W@Z
	?Cmp@DataHash@@QEAA_NPEAUHashValue@@PEAE@Z
	?CmpExt@@YA_NPEB_W0@Z
	?CmpName@@YA_NPEB_W0H@Z
	?ConvertAttributes@Archive@@QEAAXXZ
	?ConvertDosPassword@CmdExtract@@AEAAXAEAVArchive@@AEAVSecPassword@@@Z
	?ConvertFileHeader@Archive@@AEAAXPEAUFileHeader@@@Z
	?ConvertHashToMAC@@YAXPEAUHashValue@@PEAE@Z
	?ConvertNameCase@Archive@@AEAAXPEA_W@Z
	?ConvertNameToFull@@YAXPEB_WPEA_W_K@Z
	?ConvertPath@@YAPEA_WPEB_WPEA_W_K@Z
	?ConvertToPrecomposed@@YAXPEA_W_K@Z
	?Copy@File@@QEAA_JAEAV1@_J@Z
	?CopyData@FragmentedWindow@@QEAAXPEAE_K1@Z
	?CopyString15@Unpack@@AEAAXII@Z
	?CopyString20@Unpack@@AEAAXII@Z
	?CopyString@FragmentedWindow@@QEAAXIIAEA_K_K@Z
	?CorrHuff@Unpack@@AEAAXPEAGPEAE@Z
	?Create@File@@QEAA_NPEB_WI@Z
	?CreateErrorMsg@ErrorHandler@@QEAAXPEB_W0@Z
	?CreateErrorMsg@ErrorHandler@@QEAAXPEB_W@Z
	?CreatePath@@YA_NPEB_W_N1@Z
	?CreateReparsePoint@@YA_NPEAVCommandData@@PEB_WPEAUFileHeader@@@Z
	?CreateSuccessors@ModelPPM@@AEAAPEAURARPPM_CONTEXT@@_NPEAURARPPM_STATE@@@Z
	?CreateThreads@ThreadPool@@AEAAXXZ
	?Crypt15@CryptData@@AEAAXPEAE_K@Z
	?Decode@EncodeFileName@@QEAAXPEAD_KPEAE1PEA_W1@Z
	?Decode@RSCoder@@QEAA_NPEAEHPEAHH@Z
	?DecodeAudio@Unpack@@AEAAEH@Z
	?DecodeBuf@RSEncode@@QEAAXXZ
	?DecodeChar@ModelPPM@@QEAAHXZ
	?DecodeInit@ModelPPM@@QEAA_NPEAVUnpack@@AEAH@Z
	?DecodeNum@Unpack@@AEAAIIIPEAI0@Z
	?Decrypt13@CryptData@@AEAAXPEAE_K@Z
	?DecryptBlock20@CryptData@@AEAAXPEAE@Z
	?DecryptBlock@CryptData@@QEAAXPEAE_K@Z
	?DelDir@@YA_NPEB_W@Z
	?DelFile@@YA_NPEB_W@Z
	?Delete@File@@QEAA_NXZ
	?DetectStartVolume@CmdExtract@@AEAA_NPEB_W_N@Z
	?DetectTextEncoding@@YA?AW4RAR_CHARSET@@PEBE_K@Z
	?DirectRead@File@@QEAAHPEAX_K@Z
	?DoExtract@CmdExtract@@QEAAXXZ
	?DoGetComment@Archive@@AEAA_NPEAV?$Array@_W@@@Z
	?DoUnpack@Unpack@@QEAAXI_N@Z
	?DosSlashToUnix@@YAXPEBDPEAD_K@Z
	?DosSlashToUnix@@YAXPEB_WPEA_W_K@Z
	?Encode@RSCoder@@QEAAXPEAEH0@Z
	?EncodeBuf@RSEncode@@QEAAXXZ
	?EncryptBlock20@CryptData@@AEAAXPEAE@Z
	?EnumConfigPaths@@YA_NIPEA_W_K_N@Z
	?ExclCheck@CommandData@@QEAA_NPEB_W_N11@Z
	?ExclDirByAttr@CommandData@@QEAA_NI@Z
	?Execute@RarVM@@QEAAXPEAUVM_PreparedProgram@@@Z
	?ExecuteCode@Unpack@@AEAAXPEAUVM_PreparedProgram@@@Z
	?ExecuteStandardFilter@RarVM@@AEAA_NW4VM_StandardFilters@@@Z
	?Exit@ErrorHandler@@QEAAXW4RAR_EXIT@@@Z
	?ExpandFolderMask@ScanTree@@AEAA_NXZ
	?ExtrCreateDir@CmdExtract@@AEAAXAEAVArchive@@PEB_W@Z
	?ExtrCreateFile@CmdExtract@@AEAA_NAEAVArchive@@AEAVFile@@@Z
	?ExtrDllGetPassword@CmdExtract@@AEAA_NXZ
	?ExtrPrepareName@CmdExtract@@AEAAXAEAVArchive@@PEB_WPEA_W_K@Z
	?ExtractACL20@@YAXAEAVArchive@@PEB_W@Z
	?ExtractACL@@YAXAEAVArchive@@PEB_W@Z
	?ExtractArchive@CmdExtract@@AEAA?AW4EXTRACT_ARC_CODE@@XZ
	?ExtractArchiveInit@CmdExtract@@QEAAXAEAVArchive@@@Z
	?ExtractCurrentFile@CmdExtract@@QEAA_NAEAVArchive@@_KAEA_N@Z
	?ExtractFileCopy@CmdExtract@@AEAA_NAEAVFile@@PEA_W11_K@Z
	?ExtractHardlink@@YA_NPEAVCommandData@@PEA_W1_K@Z
	?ExtractStreams20@@YAXAEAVArchive@@PEB_W@Z
	?ExtractStreams@@YAXAEAVArchive@@PEB_W_N@Z
	?ExtractSymlink@@YA_NPEAVCommandData@@AEAVComprDataIO@@AEAVArchive@@PEB_W@Z
	?FastFind@FindFile@@SA_NPEB_WPEAUFindData@@_N@Z
	?FileCreate@@YA_NPEAVRAROptions@@PEAVFile@@PEA_W_KPEA_N_JPEAVRarTime@@_N@Z
	?FileExist@@YA_NPEB_W@Z
	?FileLength@File@@QEAA_JXZ
	?FilterItanium_GetBits@RarVM@@AEAAIPEAEII@Z
	?FilterItanium_SetBits@RarVM@@AEAAXPEAEIII@Z
	?FindProc@ScanTree@@AEAA?AW4SCAN_CODE@@PEAUFindData@@@Z
	?Flush@File@@QEAAXXZ
	?FullHeaderSize@Archive@@QEAAI_K@Z
	?GeneralErrMsg@ErrorHandler@@QEAAXPEB_WZZ
	?GenerateArchiveName@@YAXPEA_W_KPEB_W_N@Z
	?GenerateTables@Rijndael@@AEAAXXZ
	?Get1@RawRead@@QEAAEXZ
	?Get2@RawRead@@QEAAGXZ
	?Get4@RawRead@@QEAAIXZ
	?Get8@RawRead@@QEAA_KXZ
	?Get@SecPassword@@QEAAXPEA_W_K@Z
	?GetAppDataPath@@YA_NPEA_W_K_N@Z
	?GetArcName@CommandData@@QEAA_NPEA_WH@Z
	?GetAutoRenamedName@@YA_NPEA_W_K@Z
	?GetB@RawRead@@QEAA_KPEAX_K@Z
	?GetBlockSize@FragmentedWindow@@QEAA_K_K0@Z
	?GetByte@File@@QEAAEXZ
	?GetCRC15@RawRead@@QEAAI_N@Z
	?GetCRC32@DataHash@@QEAAIXZ
	?GetCRC50@RawRead@@QEAAIXZ
	?GetCmdParam@@YAPEB_WPEB_WPEA_W_K@Z
	?GetComment@Archive@@QEAA_NPEAV?$Array@_W@@@Z
	?GetConfigName@@YAXPEB_WPEA_W_K_N3@Z
	?GetDigits@@YAII@Z
	?GetDos@RarTime@@QEAAIXZ
	?GetExclAttr@CommandData@@AEAAIPEB_WAEA_N@Z
	?GetExt@@YAPEA_WPEB_W@Z
	?GetFileAttr@@YAIPEB_W@Z
	?GetFilePath@@YAXPEB_WPEA_W_K@Z
	?GetFilteredMask@ScanTree@@AEAA_NXZ
	?GetFirstVolIfFullSet@CmdExtract@@AEAAXPEB_W_NPEA_W_K@Z
	?GetFlagsBuf@Unpack@@AEAAXXZ
	?GetFreeDisk@@YA_JPEB_W@Z
	?GetLocal@RarTime@@QEAAXPEAURarLocalTime@@@Z
	?GetMonthName@@YAPEB_WH@Z
	?GetNext@ScanTree@@QEAA?AW4SCAN_CODE@@PEAUFindData@@@Z
	?GetNextMask@ScanTree@@AEAA_NXZ
	?GetNumberOfCPU@@YAIXZ
	?GetNumberOfThreads@@YAIXZ
	?GetOpenFileTime@File@@QEAAXPEAVRarTime@@@Z
	?GetPathDisk@@YAHPEB_W@Z
	?GetPathRoot@@YAXPEB_WPEA_W_K@Z
	?GetQueuedTask@ThreadPool@@AEAA_NPEAUQueueEntry@1@@Z
	?GetRarDataPath@@YAXPEA_W_K_N@Z
	?GetRnd@@YAXPEAE_K@Z
	?GetSSEVersion@@YA?AW4SSE_VERSION@@XZ
	?GetStartPos@Archive@@QEAA_JXZ
	?GetStreamNameNTFS@@YAXAEAVArchive@@PEA_W_K@Z
	?GetString@StringList@@QEAAPEA_WXZ
	?GetString@StringList@@QEAA_NPEAPEA_W@Z
	?GetString@StringList@@QEAA_NPEA_W_K@Z
	?GetString@StringList@@QEAA_NPEA_W_KH@Z
	?GetStringA@StringList@@QEAA_NPEAD_K@Z
	?GetSysErrMsg@ErrorHandler@@QEAA_NPEA_W_K@Z
	?GetSystemErrorCode@ErrorHandler@@QEAAHXZ
	?GetText@RarTime@@QEAAXPEA_W_K_N@Z
	?GetUnix@RarTime@@QEAA_JXZ
	?GetUnixNS@RarTime@@QEAA_KXZ
	?GetUnpackedData@ComprDataIO@@QEAAXPEAPEAEPEA_K@Z
	?GetV@RawRead@@QEAA_KXZ
	?GetVSize@RawRead@@QEAAI_K@Z
	?GetVolNumPart@@YAPEA_WPEB_W@Z
	?GetW@RawRead@@QEAAXPEA_W_K@Z
	?GetWide@@YAPEB_WPEBD@Z
	?GetWideName@@YAPEA_WPEBDPEB_WPEA_W_K@Z
	?GetWin@RarTime@@QEAA_KXZ
	?GetWinFT@RarTime@@QEAAXPEAU_FILETIME@@@Z
	?GetWinLongPath@@YA_NPEB_WPEA_W_K@Z
	?GlueFreeBlocks@SubAllocator@@AEAAXXZ
	?HuffDecode@Unpack@@AEAAXXZ
	?Init@CommandData@@QEAAXXZ
	?Init@ComprDataIO@@QEAAXXZ
	?Init@DataHash@@QEAAXW4HASH_TYPE@@I@Z
	?Init@FragmentedWindow@@QEAAX_K@Z
	?Init@HashValue@@QEAAXW4HASH_TYPE@@@Z
	?Init@QuickOpen@@QEAAXPEAVArchive@@_N@Z
	?Init@RAROptions@@QEAAXXZ
	?Init@RSCoder16@@QEAA_NIIPEA_N@Z
	?Init@RSCoder@@QEAAXH@Z
	?Init@RarVM@@QEAAXXZ
	?Init@Rijndael@@QEAAX_NPEBEI1@Z
	?Init@SupportDBCS@@QEAAXXZ
	?Init@Unpack@@QEAAX_K_N@Z
	?InitCRC32@@YAXPEAI@Z
	?InitConsole@@YAXXZ
	?InitDecoder@RangeCoder@@QEAAXPEAVUnpack@@@Z
	?InitFilters30@Unpack@@AEAAX_N@Z
	?InitFilters@Unpack@@AEAAXXZ
	?InitHuff@Unpack@@AEAAXXZ
	?InitLogOptions@@YAXPEB_WW4RAR_CHARSET@@@Z
	?InitMT@Unpack@@AEAAXXZ
	?InitSubAllocator@SubAllocator@@QEAAXXZ
	?InitSystemOptions@@YAXH@Z
	?IntToExt@@YAXPEBDPEAD_K@Z
	?InvertDecoderMatrix@RSCoder16@@AEAAXXZ
	?IsAlpha@@YA_NH@Z
	?IsArcDir@Archive@@QEAA_NXZ
	?IsArchive@Archive@@QEAA_N_N@Z
	?IsDeleteAllowed@@YA_NI@Z
	?IsDevice@File@@QEAA_NXZ
	?IsDigit@@YA_NH@Z
	?IsDir@@YA_NI@Z
	?IsDriveDiv@@YA_NH@Z
	?IsDriveLetter@@YA_NPEB_W@Z
	?IsFullPath@@YA_NPEB_W@Z
	?IsFullRootPath@@YA_NPEB_W@Z
	?IsLeapYear@@YA_NH@Z
	?IsLink@@YA_NI@Z
	?IsNameUsable@@YA_NPEB_W@Z
	?IsOpened@File@@UEAA_NXZ
	?IsPathDiv@@YA_NH@Z
	?IsProcessFile@CommandData@@QEAAHAEAUFileHeader@@PEA_NH_NPEA_WI@Z
	?IsRelativeSymlinkSafe@@YA_NPEAVCommandData@@PEB_W11@Z
	?IsRemovable@@YA_NPEB_W@Z
	?IsSignature@Archive@@SA?AW4RARFORMAT@@PEBE_K@Z
	?IsSpace@@YA_NH@Z
	?IsSwitch@CommandData@@QEAA_NH@Z
	?IsTextUtf8@@YA_NPEBE@Z
	?IsTextUtf8@@YA_NPEBE_K@Z
	?IsUnreadable@@YA_NI@Z
	?IsUserAdmin@@YA_NXZ
	?IsWildcard@@YA_NPEB_W@Z
	?Length@SecPassword@@QEAA_KXZ
	?ListArchive@@YAXPEAVCommandData@@@Z
	?Load@QuickOpen@@QEAAX_K@Z
	?LoadSysLibrary@@YAPEAUHINSTANCE__@@PEB_W@Z
	?LongLZ@Unpack@@AEAAXXZ
	?LowAscii@@YA_NPEBD@Z
	?LowAscii@@YA_NPEB_W@Z
	?MakeDecodeTables@Unpack@@AEAAXPEAEPEAUDecodeTable@@I@Z
	?MakeDecoderMatrix@RSCoder16@@AEAAXXZ
	?MakeDir@@YA?AW4MKDIR_CODE@@PEB_W_NI@Z
	?MakeEncoderMatrix@RSCoder16@@AEAAXXZ
	?MakeName@@YAXPEB_W0PEA_W_K@Z
	?MakeNameCompatible@@YAXPEA_W@Z
	?MakeNameUsable@@YAXPEAD_N@Z
	?MakeNameUsable@@YAXPEA_W_N@Z
	?MemoryError@ErrorHandler@@QEAAXXZ
	?MemoryErrorMsg@ErrorHandler@@QEAAXXZ
	?MergeArchive@@YA_NAEAVArchive@@PEAVComprDataIO@@_N_W@Z
	?MonoClock@@YAJXZ
	?Msg@uiMsgStore@@QEAAXXZ
	?Next@FindFile@@QEAA_NPEAUFindData@@_N@Z
	?NextVolumeName@@YAXPEA_WI_N@Z
	?NullToEmpty@@YAPEBDPEBD@Z
	?NullToEmpty@@YAPEB_WPEB_W@Z
	?Open@Archive@@UEAA_NPEB_WI@Z
	?Open@File@@UEAA_NPEB_WI@Z
	?OpenError@ErrorHandler@@QEAAXPEB_W@Z
	?OpenErrorMsg@ErrorHandler@@QEAAXPEB_W0@Z
	?OpenErrorMsg@ErrorHandler@@QEAAXPEB_W@Z
	?OutComment@@YAXPEB_W_K@Z
	?OutHelp@CommandData@@QEAAXW4RAR_EXIT@@@Z
	?OutTitle@CommandData@@QEAAXXZ
	?ParseArg@CommandData@@QEAAXPEA_W@Z
	?ParseCommandLine@CommandData@@QEAAX_NHQEAPEAD@Z
	?ParseDone@CommandData@@QEAAXXZ
	?ParseEnvVar@CommandData@@QEAAXXZ
	?ParseVersionFileName@@YAHPEA_W_N@Z
	?PointToLastChar@@YAPEA_WPEB_W@Z
	?PointToName@@YAPEA_WPEB_W@Z
	?PoolThread@ThreadPool@@CAKPEAX@Z
	?PoolThreadLoop@ThreadPool@@AEAAXXZ
	?Prealloc@File@@QEAAX_J@Z
	?Prepare@RarVM@@QEAAXPEAEIPEAUVM_PreparedProgram@@@Z
	?PrepareToDelete@@YAXPEB_W@Z
	?PreprocessArg@CommandData@@QEAAXPEB_W@Z
	?Process@SecPassword@@AEAAXPEB_W_KPEA_W1_N@Z
	?ProcessAreaRS@RecVolumes5@@QEAAXPEAURecRSThreadData@@@Z
	?ProcessCommand@CommandData@@QEAAXXZ
	?ProcessDecoded@Unpack@@AEAA_NAEAUUnpackThreadData@@@Z
	?ProcessExtra50@Archive@@AEAAXPEAVRawRead@@_KPEAUBaseBlock@@@Z
	?ProcessFile@@YAHPEAXHPEAD1PEA_W2@Z
	?ProcessRS@RecVolumes5@@AEAAXPEAVRAROptions@@IPEBEI_N@Z
	?ProcessSignal@@YAHK@Z
	?ProcessSwitch@CommandData@@AEAAXPEB_W@Z
	?ProcessSwitchesString@CommandData@@QEAAXPEB_W@Z
	?Push@?$Array@E@@QEAAXE@Z
	?Push@?$Array@H@@QEAAXH@Z
	?Push@?$Array@I@@QEAAXI@Z
	?Push@?$Array@UUnpackFilter@@@@QEAAXUUnpackFilter@@@Z
	?Push@?$Array@_W@@QEAAX_W@Z
	?PutByte@File@@QEAAXE@Z
	?RSDecodeThread@@YAXPEAX@Z
	?RSEncodeThread@@YAXPEAX@Z
	?RawGetV@@YA_KPEBEAEAIIAEA_N@Z
	?RawSeek@File@@QEAA_N_JH@Z
	?RawToWide@@YAPEA_WPEBEPEA_W_K@Z
	?Read@Archive@@UEAAHPEAX_K@Z
	?Read@File@@UEAAHPEAX_K@Z
	?Read@QuickOpen@@QEAA_NPEAX_KAEA_K@Z
	?Read@RawRead@@QEAAXPEAE_K@Z
	?Read@RawRead@@QEAA_K_K@Z
	?ReadBlockHeader@Unpack@@AEAA_NAEAVBitInput@@AEAUUnpackBlockHeader@@@Z
	?ReadBuffer@QuickOpen@@AEAAIXZ
	?ReadCommentData@Archive@@AEAA_NPEAV?$Array@_W@@@Z
	?ReadConfig@CommandData@@QEAAXXZ
	?ReadData@RarVM@@SAIAEAVBitInput@@@Z
	?ReadEndOfBlock@Unpack@@AEAA_NXZ
	?ReadError@ErrorHandler@@QEAAXPEB_W@Z
	?ReadErrorMsg@ErrorHandler@@QEAAXPEB_W0@Z
	?ReadErrorMsg@ErrorHandler@@QEAAXPEB_W@Z
	?ReadFilter@Unpack@@AEAA_NAEAVBitInput@@AEAUUnpackFilter@@@Z
	?ReadFilterData@Unpack@@AEAAIAEAVBitInput@@@Z
	?ReadHeader14@Archive@@AEAA_KXZ
	?ReadHeader15@Archive@@AEAA_KXZ
	?ReadHeader50@Archive@@AEAA_KXZ
	?ReadHeader@Archive@@QEAA_KXZ
	?ReadHeader@RecVolumes5@@AEAAIPEAVFile@@_N@Z
	?ReadLastTables@Unpack@@AEAAXXZ
	?ReadNext@QuickOpen@@AEAA_NXZ
	?ReadRaw@QuickOpen@@AEAA_NAEAVRawRead@@@Z
	?ReadSubData@Archive@@QEAA_NPEAV?$Array@E@@PEAVFile@@_N@Z
	?ReadTables20@Unpack@@AEAA_NXZ
	?ReadTables30@Unpack@@AEAA_NXZ
	?ReadTables@Unpack@@AEAA_NAEAVBitInput@@AEAUUnpackBlockHeader@@AEAUUnpackBlockTables@@@Z
	?ReadTextFile@@YA_NPEB_WPEAVStringList@@_N2W4RAR_CHARSET@@222@Z
	?ReadVMCode@Unpack@@AEAA_NXZ
	?ReadVMCodePPM@Unpack@@AEAA_NXZ
	?RecThreadRS@@YAXPEAX@Z
	?RecVolumesRestore@@YA_NPEAVRAROptions@@PEB_W_N@Z
	?RecVolumesTest@@YAXPEAVRAROptions@@PEAVArchive@@PEB_W@Z
	?RemoveEOL@@YAPEA_WPEA_W@Z
	?RemoveLF@@YAPEA_WPEA_W@Z
	?RemoveNameFromPath@@YAXPEA_W@Z
	?Rename@File@@QEAA_NPEB_W@Z
	?RenameFile@@YA_NPEB_W0@Z
	?ReportWrongSwitches@CommandData@@QEAAXW4RARFORMAT@@@Z
	?RequestArcPassword@Archive@@AEAAXXZ
	?Reset@?$Array@E@@QEAAXXZ
	?Reset@?$Array@_J@@QEAAXXZ
	?Reset@?$Array@_W@@QEAAXXZ
	?Reset@FileHeader@@QEAAX_K@Z
	?Reset@FragmentedWindow@@AEAAXXZ
	?Reset@MainHeader@@QEAAXXZ
	?Reset@RawRead@@QEAAXXZ
	?Reset@StringList@@QEAAXXZ
	?RestartModelRare@ModelPPM@@AEAAXXZ
	?Restore@RecVolumes3@@QEAA_NPEAVRAROptions@@PEB_W_N@Z
	?Restore@RecVolumes5@@QEAA_NPEAVRAROptions@@PEB_W_N@Z
	?RestorePosition@StringList@@QEAAXXZ
	?Result@DataHash@@QEAAXPEAUHashValue@@@Z
	?Rewind@StringList@@QEAAXXZ
	?SHA1Transform@@YAXQEAI0QEBE_N@Z
	?SSE_UpdateECC@RSCoder16@@AEAA_NIIPEBEPEAE_K@Z
	?SafePPMDecodeChar@Unpack@@AEAAHXZ
	?SavePosition@StringList@@QEAAXXZ
	?ScanError@ScanTree@@AEAAXAEA_N@Z
	?Search@StringList@@QEAA_NPEB_W_N@Z
	?SearchBlock@Archive@@QEAA_KW4HEADER_TYPE@@@Z
	?SearchRR@Archive@@QEAA_KXZ
	?SearchSubBlock@Archive@@QEAA_KPEB_W@Z
	?SecHideData@@YAXPEAX_K_N2@Z
	?Seek@Archive@@UEAAX_JH@Z
	?Seek@File@@UEAAX_JH@Z
	?Seek@QuickOpen@@QEAA_N_JH@Z
	?SeekError@ErrorHandler@@QEAAXPEB_W@Z
	?SeekToNext@Archive@@QEAAXXZ
	?Set@SecPassword@@QEAAXPEB_W@Z
	?SetAV15Encryption@ComprDataIO@@QEAAXXZ
	?SetAV15Encryption@CryptData@@QEAAXXZ
	?SetAgeText@RarTime@@QEAAXPEB_W@Z
	?SetCloseFileTime@File@@QEAAXPEAVRarTime@@0@Z
	?SetCloseFileTimeByName@File@@SAXPEB_WPEAVRarTime@@1@Z
	?SetCmt13Encryption@ComprDataIO@@QEAAXXZ
	?SetCmt13Encryption@CryptData@@QEAAXXZ
	?SetConsoleMsgStream@@YAXW4MESSAGE_TYPE@@@Z
	?SetConsoleRedirectCharset@@YAXW4RAR_CHARSET@@@Z
	?SetCryptKeys@CryptData@@QEAA_N_NW4CRYPT_METHOD@@PEAVSecPassword@@PEBE3IPEAE4@Z
	?SetCurrentTime@RarTime@@QEAAXXZ
	?SetDirTime@@YAXPEB_WPEAVRarTime@@11@Z
	?SetDisableShutdown@ErrorHandler@@QEAAXXZ
	?SetDos@RarTime@@QEAAXI@Z
	?SetEncryption@ComprDataIO@@QEAAX_NW4CRYPT_METHOD@@PEAVSecPassword@@PEBE3IPEAE4@Z
	?SetErrorCode@ErrorHandler@@QEAAXW4RAR_EXIT@@@Z
	?SetExt@@YAXPEA_WPEB_W_K@Z
	?SetExternalBuffer@BitInput@@QEAAXPEAE@Z
	?SetExtraInfo20@@YAXPEAVCommandData@@AEAVArchive@@PEA_W@Z
	?SetExtraInfo@@YAXPEAVCommandData@@AEAVArchive@@PEA_W@Z
	?SetFileAttr@@YA_NPEB_WI@Z
	?SetFileCompression@@YA_NPEB_W_N@Z
	?SetFileHeaderExtra@@YAXPEAVCommandData@@AEAVArchive@@PEA_W@Z
	?SetFiles@ComprDataIO@@QEAAXPEAVFile@@0@Z
	?SetIsoText@RarTime@@QEAAXPEB_W@Z
	?SetKey13@CryptData@@AEAAXPEBD@Z
	?SetKey15@CryptData@@AEAAXPEBD@Z
	?SetKey20@CryptData@@AEAAXPEBD@Z
	?SetKey30@CryptData@@AEAAX_NPEAVSecPassword@@PEB_WPEBE@Z
	?SetKey50@CryptData@@AEAAX_NPEAVSecPassword@@PEB_WPEBE3IPEAE4@Z
	?SetLocal@RarTime@@QEAAXPEAURarLocalTime@@@Z
	?SetMask@FindFile@@QEAAXPEB_W@Z
	?SetMemory@RarVM@@QEAAX_KPEAE0@Z
	?SetName@@YAXPEA_WPEB_W_K@Z
	?SetOpenFileTime@File@@QEAAXPEAVRarTime@@00@Z
	?SetPriority@@YAXH@Z
	?SetPrivilege@@YA_NPEB_W@Z
	?SetSFXExt@@YAXPEA_W_K@Z
	?SetSignalHandlers@ErrorHandler@@QEAAX_N@Z
	?SetStoreTimeMode@CommandData@@AEAAXPEB_W@Z
	?SetSystemErrorCode@ErrorHandler@@QEAAXH@Z
	?SetThreads@Unpack@@QEAAXI@Z
	?SetTimeFilters@CommandData@@AEAAXPEB_W_N1@Z
	?SetUnix@RarTime@@QEAAX_J@Z
	?SetUnixNS@RarTime@@QEAAX_K@Z
	?SetUnpackToMemory@ComprDataIO@@QEAAXPEAEI@Z
	?SetWin@RarTime@@QEAAX_K@Z
	?SetWinFT@RarTime@@QEAAXPEAU_FILETIME@@@Z
	?ShortLZ@Unpack@@AEAAXXZ
	?ShowUnpRead@ComprDataIO@@AEAAX_J0@Z
	?ShowUnpWrite@ComprDataIO@@AEAAXXZ
	?Shutdown@@YAXW4POWER_MODE@@@Z
	?ShutdownCheckAnother@@YA_N_N@Z
	?SizeCheck@CommandData@@QEAA_N_J@Z
	?SoftReset@?$Array@E@@QEAAXXZ
	?SoftReset@?$Array@H@@QEAAXXZ
	?SoftReset@?$Array@PEAUUnpackFilter30@@@@QEAAXXZ
	?SoftReset@?$Array@UUnpackFilter@@@@QEAAXXZ
	?SplitBlock@SubAllocator@@AEAAXPEAXHH@Z
	?StartModelRare@ModelPPM@@AEAAXH@Z
	?StartSubAllocator@SubAllocator@@QEAA_NH@Z
	?StopSubAllocator@SubAllocator@@QEAAXXZ
	?Swap20@CryptData@@AEAAXPEAE0@Z
	?SysErrMsg@ErrorHandler@@QEAAXXZ
	?TCreate@File@@QEAAXPEB_WI@Z
	?TOpen@File@@QEAAXPEB_W@Z
	?Tell@Archive@@UEAA_JXZ
	?Tell@File@@UEAA_JXZ
	?Tell@QuickOpen@@QEAA_NPEA_J@Z
	?Test@RecVolumes3@@QEAAXPEAVRAROptions@@PEB_W@Z
	?Test@RecVolumes5@@QEAAXPEAVRAROptions@@PEB_W@Z
	?Throw@ErrorHandler@@QEAAXW4RAR_EXIT@@@Z
	?TimeCheck@CommandData@@QEAA_NAEAVRarTime@@00@Z
	?ToPercent@@YAH_J0@Z
	?ToPercentUnlim@@YAH_J0@Z
	?Truncate@File@@QEAA_NXZ
	?UnexpEndArcMsg@Archive@@AEAAXXZ
	?UnixSlashToDos@@YAXPEBDPEAD_K@Z
	?UnixSlashToDos@@YAXPEB_WPEA_W_K@Z
	?UnkEncVerMsg@Archive@@AEAAXPEB_W0@Z
	?UnknownMethodMsg@ErrorHandler@@QEAAXPEB_W0@Z
	?UnpInitData15@Unpack@@AEAAXH@Z
	?UnpInitData20@Unpack@@AEAAXH@Z
	?UnpInitData30@Unpack@@AEAAX_N@Z
	?UnpInitData50@Unpack@@AEAAX_N@Z
	?UnpInitData@Unpack@@AEAAX_N@Z
	?UnpRead@ComprDataIO@@QEAAHPEAE_K@Z
	?UnpReadBuf30@Unpack@@AEAA_NXZ
	?UnpReadBuf@Unpack@@AEAA_NXZ
	?UnpWrite@ComprDataIO@@QEAAXPEAE_K@Z
	?UnpWriteArea@Unpack@@AEAAX_K0@Z
	?UnpWriteBuf20@Unpack@@AEAAXXZ
	?UnpWriteBuf30@Unpack@@AEAAXXZ
	?UnpWriteBuf@Unpack@@AEAAXXZ
	?UnpWriteData@Unpack@@AEAAXPEAE_K@Z
	?Unpack15@Unpack@@AEAAX_N@Z
	?Unpack20@Unpack@@AEAAX_N@Z
	?Unpack29@Unpack@@AEAAX_N@Z
	?Unpack5@Unpack@@AEAAX_N@Z
	?Unpack5MT@Unpack@@AEAAX_N@Z
	?UnpackDecode@Unpack@@QEAAXAEAUUnpackThreadData@@@Z
	?UnpackDecodeThread@@YAXPEAX@Z
	?UnpackLargeBlock@Unpack@@AEAA_NAEAUUnpackThreadData@@@Z
	?UnstoreFile@CmdExtract@@SAXAEAVComprDataIO@@_J@Z
	?UpdKeys20@CryptData@@AEAAXPEAE@Z
	?Update@Blake2ThreadData@@QEAAXXZ
	?Update@DataHash@@QEAAXPEBX_K@Z
	?UpdateECC@RSCoder16@@QEAAXIIPEBEPEAE_K@Z
	?UpdateExistingShortName@@YA_NPEB_W@Z
	?UpdateModel@ModelPPM@@AEAAXXZ
	?UtfToWide@@YA_NPEBDPEA_W_K@Z
	?ViewComment@Archive@@QEAAXXZ
	?VolNameToFirstName@@YAPEA_WPEB_WPEA_W_K_N@Z
	?WCheckOpen@Archive@@QEAA_NPEB_W@Z
	?WCreate@File@@QEAA_NPEB_WI@Z
	?WOpen@File@@QEAA_NPEB_W@Z
	?Wait@@YAXXZ
	?WaitDone@ThreadPool@@QEAAXXZ
	?WideToChar@@YA_NPEB_WPEAD_K@Z
	?WideToRaw@@YAPEAEPEB_WPEAE_K@Z
	?WideToUtf@@YAXPEB_WPEAD_K@Z
	?WideToUtfSize@@YA_KPEB_W@Z
	?WildFileExist@@YA_NPEB_W@Z
	?Win32Find@FindFile@@CAPEAXPEAXPEB_WPEAUFindData@@@Z
	?WinNT@@YAKXZ
	?Write@File@@QEAA_NPEBX_K@Z
	?WriteError@ErrorHandler@@QEAAXPEB_W0@Z
	?WriteErrorFAT@ErrorHandler@@QEAAXPEB_W@Z
	?WriteErrorMsg@ErrorHandler@@QEAAXPEB_W0@Z
	?atoilw@@YA_JPEB_W@Z
	?atoiw@@YAHPEB_W@Z
	?blake2sp_final@@YAXPEAUblake2sp_state@@PEAE@Z
	?blake2sp_init@@YAXPEAUblake2sp_state@@@Z
	?blake2sp_update@@YAXPEAUblake2sp_state@@PEBE_K@Z
	?blockDecrypt@Rijndael@@QEAAXPEBE_KPEAE@Z
	?blockDecryptSSE@Rijndael@@AEAAXPEBE_KPEAE@Z
	?blockEncrypt@Rijndael@@QEAAXPEBE_KPEAE@Z
	?blockEncryptSSE@Rijndael@@AEAAXPEBE_KPEAE@Z
	?charnext@SupportDBCS@@QEAAPEADPEBD@Z
	?cleandata@@YAXPEAX_K@Z
	?copychrd@SupportDBCS@@QEAAXPEADPEBD@Z
	?decodeSymbol1@RARPPM_CONTEXT@@QEAA_NPEAVModelPPM@@@Z
	?decodeSymbol2@RARPPM_CONTEXT@@QEAA_NPEAVModelPPM@@@Z
	?etoupper@@YAEE@Z
	?etoupperw@@YA_W_W@Z
	?faddbits@BitInput@@QEAAXI@Z
	?fgetbits@BitInput@@QEAAIXZ
	?gfInit@RSCoder16@@AEAAXXZ
	?gfInit@RSCoder@@AEAAXXZ
	?itoa@@YAX_JPEAD_K@Z
	?itoa@@YAX_JPEA_W_K@Z
	?keyEncToDec@Rijndael@@AEAAXXZ
	?keySched@Rijndael@@AEAAXQEAY03E@Z
	?loctolower@@YAEE@Z
	?loctoupper@@YAEE@Z
	?mprintf@@YAXPEB_WZZ
	?pbkdf2@@YAXPEBE_K01PEAE22I@Z
	?pnInit@RSCoder@@AEAAXXZ
	?pnMult@RSCoder@@AEAAXPEAH00@Z
	?rescale@RARPPM_CONTEXT@@QEAAXPEAVModelPPM@@@Z
	?sha1_done@@YAXPEAUsha1_context@@QEAI@Z
	?sha1_init@@YAXPEAUsha1_context@@@Z
	?sha1_process@@YAXPEAUsha1_context@@PEBE_K@Z
	?sha1_process_rar29@@YAXPEAUsha1_context@@PEBE_K@Z
	?sha256_done@@YAXPEAUsha256_context@@PEAE@Z
	?sha256_init@@YAXPEAUsha256_context@@@Z
	?sha256_process@@YAXPEAUsha256_context@@PEBX_K@Z
	?strchrd@SupportDBCS@@QEAAPEADPEBDH@Z
	?stricomp@@YAHPEBD0@Z
	?strlend@SupportDBCS@@QEAA_KPEBD@Z
	?strncatz@@YAXPEADPEBD_K@Z
	?strncpyz@@YAXPEADPEBD_K@Z
	?strnicomp@@YAHPEBD0_K@Z
	?strrchrd@SupportDBCS@@QEAAPEADPEBDH@Z
	?tolowerw@@YAHH@Z
	?toupperw@@YAHH@Z
	?uiAlarm@@YAXW4UIALARM_TYPE@@@Z
	?uiAskReplace@@YA?AW4UIASKREP_RESULT@@PEA_W_K_JPEAVRarTime@@I@Z
	?uiAskReplaceEx@@YA?AW4UIASKREP_RESULT@@PEAVRAROptions@@PEA_W_K_JPEAVRarTime@@I@Z
	?uiEolAfterMsg@@YAXXZ
	?uiExtractProgress@@YAX_J000@Z
	?uiGetMonthName@@YAPEB_WH@Z
	?uiGetPassword@@YA_NW4UIPASSWORD_TYPE@@PEB_WPEAVSecPassword@@@Z
	?uiGiveTick@@YAXXZ
	?uiInit@@YAXW4SOUND_NOTIFY_MODE@@@Z
	?uiIsAborted@@YA_NXZ
	?uiIsGlobalPasswordSet@@YA_NXZ
	?uiMsg@@YAXW4UIMESSAGE_CODE@@@Z
	?uiProcessProgress@@YAXPEBD_J1@Z
	?uiStartArchiveExtract@@YAX_NPEB_W@Z
	?uiStartFileExtract@@YA_NPEB_W_N11@Z
	?wcscasestr@@YAPEB_WPEB_W0@Z
	?wcsicomp@@YAHPEB_W0@Z
	?wcsicompc@@YAHPEB_W0@Z
	?wcslower@@YAPEA_WPEA_W@Z
	?wcsncatz@@YAXPEA_WPEB_W_K@Z
	?wcsncpyz@@YAXPEA_WPEB_W_K@Z
	?wcsnicomp@@YAHPEB_W0_K@Z
	?wcsnicompc@@YAHPEB_W0_K@Z
	?wcsupper@@YAPEA_WPEA_W@Z
	?what@exception@std@@UEBAPEBDXZ
	RARCloseArchive
	RARGetDllVersion
	RAROpenArchive
	RAROpenArchiveEx
	RARProcessFile
	RARProcessFileW
	RARReadHeader
	RARReadHeaderEx
	RARSetCallback
	RARSetChangeVolProc
	RARSetPassword
	RARSetProcessDataProc
	__local_stdio_printf_options
	sprintf
	swprintf
